Certificate:
    Data:
        Version: 3 (0x2)
        Serial Number:
            a3:b0:28:cb:1f:38:26:b2:dc:a2:f5:4a:e3:2c:04:81
        Signature Algorithm: sha256WithRSAEncryption
        Issuer: CN=Easy-RSA CA
        Validity
            Not Before: Aug 19 19:12:02 2021 GMT
            Not After : Nov 22 19:12:02 2023 GMT
        Subject: CN=train-dev.cisalearning.org
        Subject Public Key Info:
            Public Key Algorithm: rsaEncryption
                RSA Public-Key: (2048 bit)
                Modulus:
                    00:c7:11:c3:9b:47:05:39:98:c3:64:bf:91:b7:ae:
                    d9:9f:fa:21:51:d7:e9:10:41:8f:af:af:ca:7c:dc:
                    bb:3a:c9:0e:90:ac:46:64:2e:a1:17:57:46:ed:8f:
                    c6:0f:51:96:93:07:49:b5:b8:4f:4b:ef:65:e2:09:
                    61:24:82:5a:ad:c1:e5:22:25:5c:0c:24:85:5b:05:
                    2b:e1:54:06:e0:09:5a:63:1a:d5:f1:11:bb:af:8b:
                    69:52:d1:ec:73:0f:9a:06:61:1b:08:d7:ac:32:83:
                    1a:13:d0:27:25:11:63:58:51:74:22:77:ce:b2:14:
                    d4:b3:47:a6:f3:6c:aa:dd:52:0d:da:11:ea:5e:a4:
                    57:3d:b0:75:88:ba:20:39:80:6a:df:9b:64:81:94:
                    af:62:2d:ef:af:a2:4b:65:52:7a:8e:0f:9a:68:e2:
                    c3:4b:a3:a2:4f:d8:26:ab:6f:e7:ba:8e:a2:25:3e:
                    6d:9e:b2:57:22:a9:a6:29:14:7c:99:72:ee:f1:c7:
                    c6:d6:18:42:77:cb:46:de:2e:35:5c:38:88:c5:31:
                    2d:2f:f5:ef:54:28:84:af:c3:2a:9a:d3:a1:b2:74:
                    54:19:47:c1:4b:43:d1:1f:4a:3a:0e:d9:1f:d7:bc:
                    ec:c4:40:25:50:44:ea:82:70:0c:67:e3:7c:90:b1:
                    94:1b
                Exponent: 65537 (0x10001)
        X509v3 extensions:
            X509v3 Basic Constraints: 
                CA:FALSE
            X509v3 Subject Key Identifier: 
                71:CD:61:C8:E0:5C:D4:7E:94:1B:E5:E4:05:02:20:6C:63:F4:5F:46
            X509v3 Authority Key Identifier: 
                keyid:1A:86:01:88:DC:99:30:B6:73:86:5F:4F:BA:AC:91:9F:8A:92:CC:43
                DirName:/CN=Easy-RSA CA
                serial:59:F6:4A:28:FB:79:00:61:97:17:A5:4A:EC:82:2A:CD:06:78:9F:65

            X509v3 Extended Key Usage: 
                TLS Web Server Authentication
            X509v3 Key Usage: 
                Digital Signature, Key Encipherment
            X509v3 Subject Alternative Name: 
                DNS:train-dev.cisalearning.org
    Signature Algorithm: sha256WithRSAEncryption
         47:bd:54:bb:83:da:9b:3c:00:9d:1c:06:a6:db:7d:81:bb:a5:
         9c:8c:0f:85:09:2e:18:01:21:31:0a:94:83:85:ed:3a:cd:24:
         64:12:ea:ad:e5:7d:c3:06:9d:f6:e4:00:b7:a5:2d:af:6b:31:
         50:c1:f1:ac:42:5a:41:0a:1f:f1:12:08:30:d9:83:a6:2e:65:
         39:d2:84:4a:bd:17:81:3a:a3:60:6b:07:9d:dd:28:ca:32:76:
         79:f2:8d:4e:94:76:c6:1f:c2:64:f4:6c:d6:ab:4c:a0:14:30:
         cf:19:78:e8:67:17:05:05:6a:21:af:a9:8b:81:54:98:79:39:
         80:5e:85:62:57:10:32:f1:4c:15:42:4a:a8:2b:bd:fd:9e:c0:
         d8:fa:46:f7:0a:71:a1:b3:56:3d:68:cc:38:85:0e:e5:51:5b:
         52:b2:07:05:55:7f:62:55:72:b8:54:ea:28:17:2f:da:00:1f:
         18:41:a8:d5:89:2c:86:ad:e3:dc:a1:74:c2:a6:d2:78:5c:72:
         c6:3d:9c:e0:2c:75:81:f4:a8:03:7c:8f:26:6a:41:98:bd:8b:
         6d:21:3f:82:bc:47:34:25:11:45:be:2b:45:1a:d0:0b:0f:8b:
         96:db:76:6a:09:8a:92:d8:4c:70:54:f8:03:8f:c7:ae:87:d4:
         29:cb:43:f1
-----BEGIN CERTIFICATE-----
MIIDkDCCAnigAwIBAgIRAKOwKMsfOCay3KL1SuMsBIEwDQYJKoZIhvcNAQELBQAw
FjEUMBIGA1UEAwwLRWFzeS1SU0EgQ0EwHhcNMjEwODE5MTkxMjAyWhcNMjMxMTIy
MTkxMjAyWjAlMSMwIQYDVQQDDBp0cmFpbi1kZXYuY2lzYWxlYXJuaW5nLm9yZzCC
ASIwDQYJKoZIhvcNAQEBBQADggEPADCCAQoCggEBAMcRw5tHBTmYw2S/kbeu2Z/6
IVHX6RBBj6+vynzcuzrJDpCsRmQuoRdXRu2Pxg9RlpMHSbW4T0vvZeIJYSSCWq3B
5SIlXAwkhVsFK+FUBuAJWmMa1fERu6+LaVLR7HMPmgZhGwjXrDKDGhPQJyURY1hR
dCJ3zrIU1LNHpvNsqt1SDdoR6l6kVz2wdYi6IDmAat+bZIGUr2It76+iS2VSeo4P
mmjiw0ujok/YJqtv57qOoiU+bZ6yVyKppikUfJly7vHHxtYYQnfLRt4uNVw4iMUx
LS/171QohK/DKprTobJ0VBlHwUtD0R9KOg7ZH9e87MRAJVBE6oJwDGfjfJCxlBsC
AwEAAaOByTCBxjAJBgNVHRMEAjAAMB0GA1UdDgQWBBRxzWHI4FzUfpQb5eQFAiBs
Y/RfRjBRBgNVHSMESjBIgBQahgGI3JkwtnOGX0+6rJGfipLMQ6EapBgwFjEUMBIG
A1UEAwwLRWFzeS1SU0EgQ0GCFFn2Sij7eQBhlxelSuyCKs0GeJ9lMBMGA1UdJQQM
MAoGCCsGAQUFBwMBMAsGA1UdDwQEAwIFoDAlBgNVHREEHjAcghp0cmFpbi1kZXYu
Y2lzYWxlYXJuaW5nLm9yZzANBgkqhkiG9w0BAQsFAAOCAQEAR71Uu4PamzwAnRwG
ptt9gbulnIwPhQkuGAEhMQqUg4XtOs0kZBLqreV9wwad9uQAt6Utr2sxUMHxrEJa
QQof8RIIMNmDpi5lOdKESr0XgTqjYGsHnd0oyjJ2efKNTpR2xh/CZPRs1qtMoBQw
zxl46GcXBQVqIa+pi4FUmHk5gF6FYlcQMvFMFUJKqCu9/Z7A2PpG9wpxobNWPWjM
OIUO5VFbUrIHBVV/YlVyuFTqKBcv2gAfGEGo1Ykshq3j3KF0wqbSeFxyxj2c4Cx1
gfSoA3yPJmpBmL2LbSE/grxHNCURRb4rRRrQCw+Lltt2agmKkthMcFT4A4/HrofU
KctD8Q==
-----END CERTIFICATE-----
