Certificate:
    Data:
        Version: 3 (0x2)
        Serial Number:
            f8:14:ce:4f:9f:39:b1:fe:7c:62:66:2c:fc:53:33:af
        Signature Algorithm: sha256WithRSAEncryption
        Issuer: CN=Easy-RSA CA
        Validity
            Not Before: Aug 19 19:11:34 2021 GMT
            Not After : Nov 22 19:11:34 2023 GMT
        Subject: CN=client1.train-dev.cisalearning.org
        Subject Public Key Info:
            Public Key Algorithm: rsaEncryption
                RSA Public-Key: (2048 bit)
                Modulus:
                    00:c5:86:c4:46:6b:b2:39:3a:9e:7c:2b:28:dc:d8:
                    84:91:0c:10:bb:2d:82:f8:1f:69:eb:91:6d:13:c0:
                    32:37:50:11:97:46:cc:f2:8d:ed:dc:b6:f7:e7:5e:
                    f8:a2:01:51:ad:b9:9c:f9:c2:06:68:7a:31:ca:d6:
                    ee:ba:d5:ea:ac:ac:3b:df:6a:21:62:fd:31:9e:32:
                    ec:26:cb:38:eb:ea:ca:2e:23:98:d9:2b:4f:31:cb:
                    4f:be:d8:35:9e:33:31:49:52:8f:7b:12:2a:af:38:
                    38:b6:fa:f8:00:2c:14:58:d9:21:5b:59:bb:cf:f5:
                    ec:4d:d6:df:50:ad:8f:90:56:41:6e:85:e3:03:d4:
                    ce:86:5c:00:c6:17:30:8b:93:65:60:6d:2d:94:81:
                    b9:e8:aa:15:eb:a8:29:86:f1:53:fa:ae:6f:16:f7:
                    67:a7:c2:74:22:46:20:14:25:2e:5c:ed:85:a2:3d:
                    45:b1:0e:17:ae:14:cb:8e:92:56:8d:0b:d1:6d:03:
                    60:a1:9d:d5:76:c3:64:22:be:02:40:fc:f9:e2:da:
                    08:f8:b6:bf:76:f6:13:8a:c4:ec:ea:31:df:61:0b:
                    fd:45:90:12:f6:a4:06:a4:ba:d1:2d:2b:6b:93:b0:
                    e4:5f:1e:54:fe:b4:ba:4f:06:d1:22:c8:67:ba:11:
                    42:95
                Exponent: 65537 (0x10001)
        X509v3 extensions:
            X509v3 Basic Constraints: 
                CA:FALSE
            X509v3 Subject Key Identifier: 
                5B:8F:47:C6:C4:96:FF:62:5B:FB:10:22:4D:61:5D:BC:D6:99:7A:EC
            X509v3 Authority Key Identifier: 
                keyid:1A:86:01:88:DC:99:30:B6:73:86:5F:4F:BA:AC:91:9F:8A:92:CC:43
                DirName:/CN=Easy-RSA CA
                serial:59:F6:4A:28:FB:79:00:61:97:17:A5:4A:EC:82:2A:CD:06:78:9F:65

            X509v3 Extended Key Usage: 
                TLS Web Client Authentication
            X509v3 Key Usage: 
                Digital Signature
    Signature Algorithm: sha256WithRSAEncryption
         49:46:ca:df:98:52:8b:ce:fe:7c:24:0c:8f:f4:3d:d3:59:53:
         c2:b5:d0:d2:62:7b:f3:87:14:5d:6b:bc:8a:de:95:ff:74:34:
         66:1d:02:e7:18:2d:d2:f6:92:47:da:0a:36:58:c9:9f:dc:4d:
         87:bc:72:15:06:76:84:81:a7:b3:09:55:9f:e4:2b:ac:d3:83:
         42:2b:41:46:99:35:3d:68:a5:98:dd:96:7b:0d:13:e5:cb:74:
         5f:aa:57:94:48:cc:0d:b7:cd:35:e9:0f:d6:9f:bf:24:6b:52:
         b3:7c:03:51:69:44:e8:2d:4a:a7:51:d5:3e:48:fc:ce:3e:1b:
         bb:be:22:dd:d6:fe:00:59:b5:05:5b:49:a8:d3:cd:cf:69:aa:
         2f:6c:f8:34:24:f1:ef:20:23:2e:a1:d8:ae:c3:3a:dc:ca:1a:
         1d:02:3e:33:9c:62:dc:05:f9:94:c1:6a:8a:82:2a:79:61:0f:
         99:59:ed:59:dc:af:ef:a1:dc:73:b4:62:80:a6:92:57:a4:69:
         5e:5d:65:ca:d4:9e:41:d1:c6:9f:e1:fd:cf:62:83:69:79:49:
         21:c7:78:ff:09:e0:b4:17:1d:35:99:af:d6:ef:b1:20:b6:6b:
         31:a7:f1:49:ff:69:4e:76:32:17:2f:d2:74:bd:04:55:44:ea:
         6d:2f:5e:35
-----BEGIN CERTIFICATE-----
MIIDcTCCAlmgAwIBAgIRAPgUzk+fObH+fGJmLPxTM68wDQYJKoZIhvcNAQELBQAw
FjEUMBIGA1UEAwwLRWFzeS1SU0EgQ0EwHhcNMjEwODE5MTkxMTM0WhcNMjMxMTIy
MTkxMTM0WjAtMSswKQYDVQQDDCJjbGllbnQxLnRyYWluLWRldi5jaXNhbGVhcm5p
bmcub3JnMIIBIjANBgkqhkiG9w0BAQEFAAOCAQ8AMIIBCgKCAQEAxYbERmuyOTqe
fCso3NiEkQwQuy2C+B9p65FtE8AyN1ARl0bM8o3t3Lb35174ogFRrbmc+cIGaHox
ytbuutXqrKw732ohYv0xnjLsJss46+rKLiOY2StPMctPvtg1njMxSVKPexIqrzg4
tvr4ACwUWNkhW1m7z/XsTdbfUK2PkFZBboXjA9TOhlwAxhcwi5NlYG0tlIG56KoV
66gphvFT+q5vFvdnp8J0IkYgFCUuXO2Foj1FsQ4XrhTLjpJWjQvRbQNgoZ3VdsNk
Ir4CQPz54toI+La/dvYTisTs6jHfYQv9RZAS9qQGpLrRLStrk7DkXx5U/rS6TwbR
IshnuhFClQIDAQABo4GiMIGfMAkGA1UdEwQCMAAwHQYDVR0OBBYEFFuPR8bElv9i
W/sQIk1hXbzWmXrsMFEGA1UdIwRKMEiAFBqGAYjcmTC2c4ZfT7qskZ+KksxDoRqk
GDAWMRQwEgYDVQQDDAtFYXN5LVJTQSBDQYIUWfZKKPt5AGGXF6VK7IIqzQZ4n2Uw
EwYDVR0lBAwwCgYIKwYBBQUHAwIwCwYDVR0PBAQDAgeAMA0GCSqGSIb3DQEBCwUA
A4IBAQBJRsrfmFKLzv58JAyP9D3TWVPCtdDSYnvzhxRda7yK3pX/dDRmHQLnGC3S
9pJH2go2WMmf3E2HvHIVBnaEgaezCVWf5Cus04NCK0FGmTU9aKWY3ZZ7DRPly3Rf
qleUSMwNt8016Q/Wn78ka1KzfANRaUToLUqnUdU+SPzOPhu7viLd1v4AWbUFW0mo
083PaaovbPg0JPHvICMuodiuwzrcyhodAj4znGLcBfmUwWqKgip5YQ+ZWe1Z3K/v
odxztGKAppJXpGleXWXK1J5B0caf4f3PYoNpeUkhx3j/CeC0Fx01ma/W77Egtmsx
p/FJ/2lOdjIXL9J0vQRVROptL141
-----END CERTIFICATE-----
